; Function Attrs: nofree norecurse nosync nounwind memory(read, argmem: readwrite, inaccessiblemem: none) uwtable
define void @Abc_SuppGenProfile(ptr noundef readonly captures(none) %0, i32 noundef %1, ptr noundef captures(none) %2) local_unnamed_addr #7 {
  %4 = getelementptr i8, ptr %0, i64 4
  %.val17 = load i32, ptr %4, align 4, !tbaa !3
  %5 = icmp sgt i32 %.val17, 0
  br i1 %5, label %.lr.ph20, label %.critedge

.lr.ph20:                                         ; preds = %3
  %6 = getelementptr i8, ptr %0, i64 8
  %.val15 = load ptr, ptr %6, align 8, !tbaa !11
  %7 = zext i32 %1 to i64
  %8 = icmp sgt i32 %1, 0
  br i1 %8, label %.lr.ph.us, label %.critedge

.lr.ph.us:                                        ; preds = %.lr.ph20, %._crit_edge.us
  %indvars.iv23 = phi i64 [ %indvars.iv.next24, %._crit_edge.us ], [ 0, %.lr.ph20 ]
  %9 = getelementptr inbounds nuw i64, ptr %.val15, i64 %indvars.iv23
  %10 = load i64, ptr %9, align 8, !tbaa !12
  %11 = lshr i64 %10, %7
  br label %12

12:                                               ; preds = %.lr.ph.us, %12
  %indvars.iv = phi i64 [ 0, %.lr.ph.us ], [ %indvars.iv.next, %12 ]
  %13 = lshr i64 %10, %indvars.iv
  %14 = xor i64 %13, %11
  %15 = getelementptr inbounds nuw i32, ptr %2, i64 %indvars.iv
  %16 = load i32, ptr %15, align 4, !tbaa !22
  %17 = trunc i64 %14 to i32
  %18 = and i32 %17, 1
  %19 = add i32 %16, %18
  store i32 %19, ptr %15, align 4, !tbaa !22
  %indvars.iv.next = add nuw nsw i64 %indvars.iv, 1
  %exitcond.not = icmp eq i64 %indvars.iv.next, %7
  br i1 %exitcond.not, label %._crit_edge.us, label %12, !llvm.loop !27

._crit_edge.us:                                   ; preds = %12
  %indvars.iv.next24 = add nuw nsw i64 %indvars.iv23, 1
  %.val.us = load i32, ptr %4, align 4, !tbaa !3
  %20 = sext i32 %.val.us to i64
  %21 = icmp slt i64 %indvars.iv.next24, %20
  br i1 %21, label %.lr.ph.us, label %.critedge, !llvm.loop !28

.critedge:                                        ; preds = %._crit_edge.us, %.lr.ph20, %3
  ret void
}